target datalayout = "e-m:e-p270:32:32-p271:32:32-p272:64:64-i64:64-i128:128-f80:128-n8:16:32:64-S128"
target triple = "x86_64-pc-linux-gnu"

@suspended = internal global i8 0, align 1
@.str.5 = private unnamed_addr constant [43 x i8] c"defer sending msg_type %u to suspended job\00", align 1

; Function Attrs: nounwind uwtable
define dso_local void @wait_for_resumed(i16 noundef zeroext %0) #0 {
  %2 = alloca i16, align 2
  %3 = alloca i32, align 4
  store i16 %0, ptr %2, align 2
  call void @llvm.lifetime.start.p0(i64 4, ptr %3) #10
  store i32 0, ptr %3, align 4
  br label %4

4:                                                ; preds = %30, %1
  %5 = load i32, ptr %3, align 4
  %6 = icmp ne i32 %5, 0
  br i1 %6, label %7, label %9

7:                                                ; preds = %4
  %8 = call i32 @sleep(i32 noundef 1)
  br label %9

9:                                                ; preds = %7, %4
  %10 = load i8, ptr @suspended, align 1, !range !8, !noundef !9
  %11 = trunc i8 %10 to i1
  br i1 %11, label %13, label %12

12:                                               ; preds = %9
  call void @llvm.lifetime.end.p0(i64 4, ptr %3) #10
  ret void

13:                                               ; preds = %9
  %14 = load i32, ptr %3, align 4
  %15 = icmp eq i32 %14, 0
  br i1 %15, label %16, label %29

16:                                               ; preds = %13
  br label %17

17:                                               ; preds = %16
  br label %18

18:                                               ; preds = %17
  %19 = call i32 @get_log_level()
  %20 = icmp sge i32 %19, 3
  br i1 %20, label %21, label %24

21:                                               ; preds = %18
  %22 = load i16, ptr %2, align 2
  %23 = zext i16 %22 to i32
  call void (i32, ptr, ...) @log_var(i32 noundef 3, ptr noundef @.str.5, i32 noundef %23)
  br label %24

24:                                               ; preds = %21, %18
  br label %25

25:                                               ; preds = %24
  br label %26

26:                                               ; preds = %25
  br label %27

27:                                               ; preds = %26
  br label %28

28:                                               ; preds = %27
  br label %29

29:                                               ; preds = %28, %13
  br label %30

30:                                               ; preds = %29
  %31 = load i32, ptr %3, align 4
  %32 = add nsw i32 %31, 1
  store i32 %32, ptr %3, align 4
  br label %4, !llvm.loop !13
}