; Function Attrs: nounwind uwtable
define dso_local void @wait_for_resumed(i16 noundef zeroext %0) local_unnamed_addr #0 {
  %2 = zext i16 %0 to i32
  br label %3

3:                                                ; preds = %.thread6, %1
  %.0 = phi i32 [ 0, %1 ], [ %11, %.thread6 ]
  %.not = icmp eq i32 %.0, 0
  br i1 %.not, label %4, label %.thread

4:                                                ; preds = %3
  %.b4 = load i1, ptr @suspended, align 1
  br i1 %.b4, label %7, label %6

.thread:                                          ; preds = %3
  %5 = tail call i32 @sleep(i32 noundef 1) #13
  %.b45 = load i1, ptr @suspended, align 1
  br i1 %.b45, label %.thread6, label %6

6:                                                ; preds = %.thread, %4
  ret void

7:                                                ; preds = %4
  %8 = tail call i32 @get_log_level() #13
  %9 = icmp sgt i32 %8, 2
  br i1 %9, label %10, label %.thread6

10:                                               ; preds = %7
  tail call void (i32, ptr, ...) @log_var(i32 noundef 3, ptr noundef nonnull @.str.5, i32 noundef %2) #13
  br label %.thread6

.thread6:                                         ; preds = %.thread, %10, %7
  %11 = add nuw nsw i32 %.0, 1
  br label %3, !llvm.loop !13
}